target datalayout = "e-m:e-p270:32:32-p271:32:32-p272:64:64-i64:64-i128:128-f80:128-n8:16:32:64-S128"
target triple = "x86_64-pc-linux-gnu"

; Function Attrs: nounwind uwtable
define internal void @intra_pred_horiz(ptr noundef %0, ptr noundef %1, ptr noundef %2, i64 noundef %3) #0 {
  %5 = alloca ptr, align 8
  %6 = alloca ptr, align 8
  %7 = alloca ptr, align 8
  %8 = alloca i64, align 8
  %9 = alloca i32, align 4
  %10 = alloca i64, align 8
  store ptr %0, ptr %5, align 8, !tbaa !57
  store ptr %1, ptr %6, align 8, !tbaa !57
  store ptr %2, ptr %7, align 8, !tbaa !57
  store i64 %3, ptr %8, align 8, !tbaa !107
  call void @llvm.lifetime.start.p0(i64 4, ptr %9) #10
  call void @llvm.lifetime.start.p0(i64 8, ptr %10) #10
  store i32 0, ptr %9, align 4, !tbaa !9
  br label %11

11:                                               ; preds = %30, %4
  %12 = load i32, ptr %9, align 4, !tbaa !9
  %13 = icmp slt i32 %12, 8
  br i1 %13, label %14, label %33

14:                                               ; preds = %11
  %15 = load ptr, ptr %7, align 8, !tbaa !57
  %16 = load i32, ptr %9, align 4, !tbaa !9
  %17 = add nsw i32 %16, 1
  %18 = sext i32 %17 to i64
  %19 = getelementptr inbounds i8, ptr %15, i64 %18
  %20 = load i8, ptr %19, align 1, !tbaa !27
  %21 = zext i8 %20 to i64
  %22 = mul i64 %21, 72340172838076673
  store i64 %22, ptr %10, align 8, !tbaa !107
  %23 = load i64, ptr %10, align 8, !tbaa !107
  %24 = load ptr, ptr %5, align 8, !tbaa !57
  %25 = load i32, ptr %9, align 4, !tbaa !9
  %26 = sext i32 %25 to i64
  %27 = load i64, ptr %8, align 8, !tbaa !107
  %28 = mul nsw i64 %26, %27
  %29 = getelementptr inbounds i8, ptr %24, i64 %28
  store i64 %23, ptr %29, align 8, !tbaa !107
  br label %30

30:                                               ; preds = %14
  %31 = load i32, ptr %9, align 4, !tbaa !9
  %32 = add nsw i32 %31, 1
  store i32 %32, ptr %9, align 4, !tbaa !9
  br label %11, !llvm.loop !109

33:                                               ; preds = %11
  call void @llvm.lifetime.end.p0(i64 8, ptr %10) #10
  call void @llvm.lifetime.end.p0(i64 4, ptr %9) #10
  ret void
}