; Function Attrs: nofree norecurse nosync nounwind memory(argmem: readwrite) uwtable
define internal void @intra_pred_horiz(ptr noundef writeonly captures(none) %0, ptr readnone captures(none) %1, ptr noundef readonly captures(none) %2, i64 noundef %3) #9 {
  br label %5

5:                                                ; preds = %4, %5
  %indvars.iv = phi i64 [ 0, %4 ], [ %indvars.iv.next, %5 ]
  %indvars.iv.next = add nuw nsw i64 %indvars.iv, 1
  %6 = getelementptr inbounds nuw i8, ptr %2, i64 %indvars.iv.next
  %7 = load i8, ptr %6, align 1, !tbaa !24
  %8 = zext i8 %7 to i64
  %9 = mul nuw i64 %8, 72340172838076673
  %10 = mul nsw i64 %3, %indvars.iv
  %11 = getelementptr inbounds i8, ptr %0, i64 %10
  store i64 %9, ptr %11, align 8, !tbaa !95
  %exitcond.not = icmp eq i64 %indvars.iv.next, 8
  br i1 %exitcond.not, label %12, label %5, !llvm.loop !97

12:                                               ; preds = %5
  ret void
}